target datalayout = "e-m:e-p270:32:32-p271:32:32-p272:64:64-i64:64-i128:128-f80:128-n8:16:32:64-S128"
target triple = "x86_64-pc-linux-gnu"

%struct.H5HF_t = type { ptr, ptr }
%struct.H5HF_hdr_t = type { %struct.H5C_cache_entry_t, i32, i32, i8, i8, i8, i8, %struct.H5HF_dtable_t, i64, i64, i32, i64, i64, %struct.H5O_pline_t, i64, i32, i64, i64, i64, i64, i64, i64, i64, i64, i64, i64, i64, i32, ptr, i64, i8, i8, i8, ptr, i32, ptr, %struct.H5HF_block_iter_t, ptr, i64, i8, i8, i64, i8, i8, i8, i8 }
%struct.H5C_cache_entry_t = type { ptr, i64, i64, ptr, i8, ptr, i8, i8, i8, i8, i32, i8, i8, i8, i8, i8, i32, ptr, i32, i32, i32, i32, i32, i8, i8, ptr, ptr, ptr, ptr, ptr, ptr, i8, i32, i8, i64, ptr, i64, i64, i32, i8, i32, i32, i8, ptr, ptr, ptr }
%struct.H5HF_dtable_t = type { %struct.H5HF_dtable_cparam_t, i64, i32, i32, i32, i32, i32, i32, i32, i64, ptr, ptr, ptr, ptr }
%struct.H5HF_dtable_cparam_t = type { i32, i64, i64, i32, i32 }
%struct.H5O_pline_t = type { %struct.H5O_shared_t, i32, i64, i64, ptr }
%struct.H5O_shared_t = type { i32, ptr, i32, %union.anon }
%union.anon = type { %struct.H5O_mesg_loc_t }
%struct.H5O_mesg_loc_t = type { i32, i64 }
%struct.H5HF_block_iter_t = type { i8, ptr }

@H5HF_init_g = global i8 0, align 1
@H5_libterm_g = external global i8, align 1
@.str = private unnamed_addr constant [98 x i8] c"generated/home/dtcxzyw/WorkSpace/Projects/compilers/llvm-opt-benchmark/bench/hdf5/hdf5/src/H5HF.c\00", align 1
@H5E_HEAP_g = external global i64, align 8
@H5E_UNSUPPORTED_g = external global i64, align 8
@H5E_VERSION_g = external global i64, align 8
@.str.14 = private unnamed_addr constant [26 x i8] c"incorrect heap ID version\00", align 1
@H5E_CANTGET_g = external global i64, align 8
@stderr = external global ptr, align 8
@.str.18 = private unnamed_addr constant [37 x i8] c"%s: Heap ID type not supported yet!\0A\00", align 1
@.str.19 = private unnamed_addr constant [31 x i8] c"heap ID type not supported yet\00", align 1
@__func__.H5HF_get_obj_off = private unnamed_addr constant [17 x i8] c"H5HF_get_obj_off\00", align 1
@.str.20 = private unnamed_addr constant [33 x i8] c"can't get 'huge' object's offset\00", align 1

; Function Attrs: nounwind uwtable
define i32 @H5HF_get_obj_off(ptr noundef %0, ptr noundef %1, ptr noundef %2) #0 {
  %4 = alloca ptr, align 8
  %5 = alloca ptr, align 8
  %6 = alloca ptr, align 8
  %7 = alloca ptr, align 8
  %8 = alloca i8, align 1
  %9 = alloca i32, align 4
  %10 = alloca i8, align 1
  store ptr %0, ptr %4, align 8, !tbaa !17
  store ptr %1, ptr %5, align 8, !tbaa !3
  store ptr %2, ptr %6, align 8, !tbaa !47
  call void @llvm.lifetime.start.p0(i64 8, ptr %7) #6
  %11 = load ptr, ptr %5, align 8, !tbaa !3
  store ptr %11, ptr %7, align 8, !tbaa !52
  call void @llvm.lifetime.start.p0(i64 1, ptr %8) #6
  call void @llvm.lifetime.start.p0(i64 4, ptr %9) #6
  store i32 0, ptr %9, align 4, !tbaa !24
  call void @llvm.lifetime.start.p0(i64 1, ptr %10) #6
  store i8 0, ptr %10, align 1, !tbaa !9
  %12 = load i8, ptr @H5HF_init_g, align 1, !tbaa !9, !range !11, !noundef !12
  %13 = trunc i8 %12 to i1
  br i1 %13, label %18, label %14

14:                                               ; preds = %3
  %15 = load i8, ptr @H5_libterm_g, align 1, !tbaa !9, !range !11, !noundef !12
  %16 = trunc i8 %15 to i1
  %17 = xor i1 %16, true
  br label %18

18:                                               ; preds = %14, %3
  %19 = phi i1 [ false, %3 ], [ %17, %14 ]
  %20 = xor i1 %19, true
  %21 = xor i1 %20, true
  %22 = zext i1 %21 to i32
  %23 = sext i32 %22 to i64
  %24 = call i64 @llvm.expect.i64(i64 %23, i64 0)
  %25 = icmp ne i64 %24, 0
  br i1 %25, label %26, label %27

26:                                               ; preds = %18
  store i8 1, ptr @H5HF_init_g, align 1, !tbaa !9
  br label %27

27:                                               ; preds = %26, %18
  %28 = load i8, ptr @H5HF_init_g, align 1, !tbaa !9, !range !11, !noundef !12
  %29 = trunc i8 %28 to i1
  br i1 %29, label %34, label %30

30:                                               ; preds = %27
  %31 = load i8, ptr @H5_libterm_g, align 1, !tbaa !9, !range !11, !noundef !12
  %32 = trunc i8 %31 to i1
  %33 = xor i1 %32, true
  br label %34

34:                                               ; preds = %30, %27
  %35 = phi i1 [ true, %27 ], [ %33, %30 ]
  %36 = xor i1 %35, true
  %37 = xor i1 %36, true
  %38 = zext i1 %37 to i32
  %39 = sext i32 %38 to i64
  %40 = call i64 @llvm.expect.i64(i64 %39, i64 1)
  %41 = icmp ne i64 %40, 0
  br i1 %41, label %42, label %151

42:                                               ; preds = %34
  %43 = load ptr, ptr %7, align 8, !tbaa !52
  %44 = load i8, ptr %43, align 1, !tbaa !54
  store i8 %44, ptr %8, align 1, !tbaa !54
  %45 = load i8, ptr %8, align 1, !tbaa !54
  %46 = zext i8 %45 to i32
  %47 = and i32 %46, 192
  %48 = icmp ne i32 %47, 0
  br i1 %48, label %49, label %68

49:                                               ; preds = %42
  br label %50

50:                                               ; preds = %49
  br label %51

51:                                               ; preds = %50
  br label %52

52:                                               ; preds = %51
  %53 = load i64, ptr @H5E_HEAP_g, align 8, !tbaa !7
  %54 = load i64, ptr @H5E_VERSION_g, align 8, !tbaa !7
  %55 = call i32 (ptr, ptr, i32, i64, i64, ptr, ...) @H5E_printf_stack(ptr noundef @.str, ptr noundef @__func__.H5HF_get_obj_off, i32 noundef 455, i64 noundef %53, i64 noundef %54, ptr noundef @.str.14)
  br label %56

56:                                               ; preds = %52
  br label %57

57:                                               ; preds = %56
  store i8 1, ptr %10, align 1, !tbaa !9
  %58 = load i8, ptr %10, align 1, !tbaa !9, !range !11, !noundef !12
  %59 = trunc i8 %58 to i1
  %60 = zext i1 %59 to i8
  store i8 %60, ptr %10, align 1, !tbaa !9
  br label %61

61:                                               ; preds = %57
  br label %62

62:                                               ; preds = %61
  br label %63

63:                                               ; preds = %62
  store i32 -1, ptr %9, align 4, !tbaa !24
  br label %150

64:                                               ; No predecessors!
  br label %65

65:                                               ; preds = %64
  br label %66

66:                                               ; preds = %65
  br label %67

67:                                               ; preds = %66
  br label %68

68:                                               ; preds = %67, %42
  %69 = load ptr, ptr %4, align 8, !tbaa !17
  %70 = getelementptr inbounds nuw %struct.H5HF_t, ptr %69, i32 0, i32 1
  %71 = load ptr, ptr %70, align 8, !tbaa !23
  %72 = load ptr, ptr %4, align 8, !tbaa !17
  %73 = getelementptr inbounds nuw %struct.H5HF_t, ptr %72, i32 0, i32 0
  %74 = load ptr, ptr %73, align 8, !tbaa !21
  %75 = getelementptr inbounds nuw %struct.H5HF_hdr_t, ptr %74, i32 0, i32 28
  store ptr %71, ptr %75, align 8, !tbaa !26
  %76 = load i8, ptr %8, align 1, !tbaa !54
  %77 = zext i8 %76 to i32
  %78 = and i32 %77, 48
  %79 = icmp eq i32 %78, 0
  br i1 %79, label %80, label %86

80:                                               ; preds = %68
  %81 = load ptr, ptr %4, align 8, !tbaa !17
  %82 = getelementptr inbounds nuw %struct.H5HF_t, ptr %81, i32 0, i32 0
  %83 = load ptr, ptr %82, align 8, !tbaa !21
  %84 = load ptr, ptr %7, align 8, !tbaa !52
  %85 = load ptr, ptr %6, align 8, !tbaa !47
  call void @H5HF__man_get_obj_off(ptr noundef %83, ptr noundef %84, ptr noundef %85)
  br label %149

86:                                               ; preds = %68
  %87 = load i8, ptr %8, align 1, !tbaa !54
  %88 = zext i8 %87 to i32
  %89 = and i32 %88, 48
  %90 = icmp eq i32 %89, 16
  br i1 %90, label %91, label %119

91:                                               ; preds = %86
  %92 = load ptr, ptr %4, align 8, !tbaa !17
  %93 = getelementptr inbounds nuw %struct.H5HF_t, ptr %92, i32 0, i32 0
  %94 = load ptr, ptr %93, align 8, !tbaa !21
  %95 = load ptr, ptr %7, align 8, !tbaa !52
  %96 = load ptr, ptr %6, align 8, !tbaa !47
  %97 = call i32 @H5HF__huge_get_obj_off(ptr noundef %94, ptr noundef %95, ptr noundef %96)
  %98 = icmp slt i32 %97, 0
  br i1 %98, label %99, label %118

99:                                               ; preds = %91
  br label %100

100:                                              ; preds = %99
  br label %101

101:                                              ; preds = %100
  br label %102

102:                                              ; preds = %101
  %103 = load i64, ptr @H5E_HEAP_g, align 8, !tbaa !7
  %104 = load i64, ptr @H5E_CANTGET_g, align 8, !tbaa !7
  %105 = call i32 (ptr, ptr, i32, i64, i64, ptr, ...) @H5E_printf_stack(ptr noundef @.str, ptr noundef @__func__.H5HF_get_obj_off, i32 noundef 467, i64 noundef %103, i64 noundef %104, ptr noundef @.str.20)
  br label %106

106:                                              ; preds = %102
  br label %107

107:                                              ; preds = %106
  store i8 1, ptr %10, align 1, !tbaa !9
  %108 = load i8, ptr %10, align 1, !tbaa !9, !range !11, !noundef !12
  %109 = trunc i8 %108 to i1
  %110 = zext i1 %109 to i8
  store i8 %110, ptr %10, align 1, !tbaa !9
  br label %111

111:                                              ; preds = %107
  br label %112

112:                                              ; preds = %111
  br label %113

113:                                              ; preds = %112
  store i32 -1, ptr %9, align 4, !tbaa !24
  br label %150

114:                                              ; No predecessors!
  br label %115

115:                                              ; preds = %114
  br label %116

116:                                              ; preds = %115
  br label %117

117:                                              ; preds = %116
  br label %118

118:                                              ; preds = %117, %91
  br label %148

119:                                              ; preds = %86
  %120 = load i8, ptr %8, align 1, !tbaa !54
  %121 = zext i8 %120 to i32
  %122 = and i32 %121, 48
  %123 = icmp eq i32 %122, 32
  br i1 %123, label %124, label %126

124:                                              ; preds = %119
  %125 = load ptr, ptr %6, align 8, !tbaa !47
  store i64 0, ptr %125, align 8, !tbaa !7
  br label %147

126:                                              ; preds = %119
  %127 = load ptr, ptr @stderr, align 8, !tbaa !55
  %128 = call i32 (ptr, ptr, ...) @fprintf(ptr noundef %127, ptr noundef @.str.18, ptr noundef @__func__.H5HF_get_obj_off) #6
  br label %129

129:                                              ; preds = %126
  br label %130

130:                                              ; preds = %129
  br label %131

131:                                              ; preds = %130
  %132 = load i64, ptr @H5E_HEAP_g, align 8, !tbaa !7
  %133 = load i64, ptr @H5E_UNSUPPORTED_g, align 8, !tbaa !7
  %134 = call i32 (ptr, ptr, i32, i64, i64, ptr, ...) @H5E_printf_stack(ptr noundef @.str, ptr noundef @__func__.H5HF_get_obj_off, i32 noundef 475, i64 noundef %132, i64 noundef %133, ptr noundef @.str.19)
  br label %135

135:                                              ; preds = %131
  br label %136

136:                                              ; preds = %135
  store i8 1, ptr %10, align 1, !tbaa !9
  %137 = load i8, ptr %10, align 1, !tbaa !9, !range !11, !noundef !12
  %138 = trunc i8 %137 to i1
  %139 = zext i1 %138 to i8
  store i8 %139, ptr %10, align 1, !tbaa !9
  br label %140

140:                                              ; preds = %136
  br label %141

141:                                              ; preds = %140
  br label %142

142:                                              ; preds = %141
  store i32 -1, ptr %9, align 4, !tbaa !24
  br label %150

143:                                              ; No predecessors!
  br label %144

144:                                              ; preds = %143
  br label %145

145:                                              ; preds = %144
  br label %146

146:                                              ; preds = %145
  br label %147

147:                                              ; preds = %146, %124
  br label %148

148:                                              ; preds = %147, %118
  br label %149

149:                                              ; preds = %148, %80
  br label %150

150:                                              ; preds = %149, %142, %113, %63
  br label %151

151:                                              ; preds = %150, %34
  %152 = load i32, ptr %9, align 4, !tbaa !24
  call void @llvm.lifetime.end.p0(i64 1, ptr %10) #6
  call void @llvm.lifetime.end.p0(i64 4, ptr %9) #6
  call void @llvm.lifetime.end.p0(i64 1, ptr %8) #6
  call void @llvm.lifetime.end.p0(i64 8, ptr %7) #6
  ret i32 %152
}