; Function Attrs: nounwind uwtable
define range(i32 -1, 1) i32 @H5HF_get_obj_off(ptr noundef readonly captures(none) %0, ptr noundef %1, ptr noundef %2) local_unnamed_addr #2 {
  %4 = load i8, ptr @H5HF_init_g, align 1, !tbaa !3, !range !7, !noundef !8
  %5 = trunc nuw i8 %4 to i1
  %6 = load i8, ptr @H5_libterm_g, align 1, !range !7
  %7 = trunc nuw i8 %6 to i1
  %8 = select i1 %5, i1 true, i1 %7
  br i1 %8, label %9, label %.thread, !prof !9

.thread:                                          ; preds = %3
  store i8 1, ptr @H5HF_init_g, align 1, !tbaa !3
  br label %12

9:                                                ; preds = %3
  %10 = xor i1 %7, true
  %11 = select i1 %5, i1 true, i1 %10
  br i1 %11, label %12, label %39, !prof !10

12:                                               ; preds = %.thread, %9
  %13 = load i8, ptr %1, align 1, !tbaa !45
  %.not = icmp ult i8 %13, 64
  br i1 %.not, label %18, label %14

14:                                               ; preds = %12
  %15 = load i64, ptr @H5E_HEAP_g, align 8, !tbaa !11
  %16 = load i64, ptr @H5E_VERSION_g, align 8, !tbaa !11
  %17 = tail call i32 (ptr, ptr, i32, i64, i64, ptr, ...) @H5E_printf_stack(ptr noundef nonnull @.str, ptr noundef nonnull @__func__.H5HF_get_obj_off, i32 noundef 455, i64 noundef %15, i64 noundef %16, ptr noundef nonnull @.str.14) #5
  br label %39

18:                                               ; preds = %12
  %19 = getelementptr inbounds nuw i8, ptr %0, i64 8
  %20 = load ptr, ptr %19, align 8, !tbaa !18
  %21 = load ptr, ptr %0, align 8, !tbaa !13
  %22 = getelementptr inbounds nuw i8, ptr %21, i64 600
  store ptr %20, ptr %22, align 8, !tbaa !19
  %23 = lshr i8 %13, 4
  switch i8 %23, label %.unreachabledefault [
    i8 0, label %24
    i8 1, label %25
    i8 2, label %32
    i8 3, label %33
  ]

24:                                               ; preds = %18
  tail call void @H5HF__man_get_obj_off(ptr noundef nonnull %21, ptr noundef nonnull %1, ptr noundef %2) #5
  br label %39

25:                                               ; preds = %18
  %26 = tail call i32 @H5HF__huge_get_obj_off(ptr noundef nonnull %21, ptr noundef nonnull %1, ptr noundef %2) #5
  %27 = icmp slt i32 %26, 0
  br i1 %27, label %28, label %39

28:                                               ; preds = %25
  %29 = load i64, ptr @H5E_HEAP_g, align 8, !tbaa !11
  %30 = load i64, ptr @H5E_CANTGET_g, align 8, !tbaa !11
  %31 = tail call i32 (ptr, ptr, i32, i64, i64, ptr, ...) @H5E_printf_stack(ptr noundef nonnull @.str, ptr noundef nonnull @__func__.H5HF_get_obj_off, i32 noundef 467, i64 noundef %29, i64 noundef %30, ptr noundef nonnull @.str.20) #5
  br label %39

32:                                               ; preds = %18
  store i64 0, ptr %2, align 8, !tbaa !11
  br label %39

.unreachabledefault:                              ; preds = %18
  unreachable

33:                                               ; preds = %18
  %34 = load ptr, ptr @stderr, align 8, !tbaa !46
  %35 = tail call i32 (ptr, ptr, ...) @fprintf(ptr noundef %34, ptr noundef nonnull @.str.18, ptr noundef nonnull @__func__.H5HF_get_obj_off) #6
  %36 = load i64, ptr @H5E_HEAP_g, align 8, !tbaa !11
  %37 = load i64, ptr @H5E_UNSUPPORTED_g, align 8, !tbaa !11
  %38 = tail call i32 (ptr, ptr, i32, i64, i64, ptr, ...) @H5E_printf_stack(ptr noundef nonnull @.str, ptr noundef nonnull @__func__.H5HF_get_obj_off, i32 noundef 475, i64 noundef %36, i64 noundef %37, ptr noundef nonnull @.str.19) #5
  br label %39

39:                                               ; preds = %14, %28, %33, %32, %25, %24, %9
  %.0 = phi i32 [ -1, %14 ], [ 0, %24 ], [ -1, %28 ], [ 0, %25 ], [ 0, %32 ], [ -1, %33 ], [ 0, %9 ]
  ret i32 %.0
}